; Function Attrs: nofree norecurse nosync nounwind memory(argmem: readwrite, inaccessiblemem: readwrite) uwtable
define internal void @avg32_c(ptr noundef captures(none) %0, i64 noundef %1, ptr noundef readonly captures(none) %2, i64 noundef %3, i32 noundef %4, i32 %5, i32 %6) #5 {
  tail call void @llvm.experimental.noalias.scope.decl(metadata !99)
  tail call void @llvm.experimental.noalias.scope.decl(metadata !102)
  %8 = lshr i64 %1, 1
  %9 = lshr i64 %3, 1
  br label %10

10:                                               ; preds = %22, %7
  %.019.i = phi i32 [ %4, %7 ], [ %25, %22 ]
  %.018.i = phi ptr [ %0, %7 ], [ %23, %22 ]
  %.017.i = phi ptr [ %2, %7 ], [ %24, %22 ]
  br label %11

11:                                               ; preds = %10, %11
  %indvars.iv = phi i64 [ 0, %10 ], [ %indvars.iv.next, %11 ]
  %12 = getelementptr inbounds nuw i16, ptr %.018.i, i64 %indvars.iv
  %13 = load i64, ptr %12, align 8, !tbaa !8, !alias.scope !99, !noalias !102
  %14 = getelementptr inbounds nuw i16, ptr %.017.i, i64 %indvars.iv
  %15 = load i64, ptr %14, align 1, !tbaa !8, !alias.scope !102, !noalias !99
  %16 = or i64 %15, %13
  %17 = xor i64 %15, %13
  %18 = lshr i64 %17, 1
  %19 = and i64 %18, 9223231297218904063
  %20 = sub i64 %16, %19
  store i64 %20, ptr %12, align 8, !tbaa !8, !alias.scope !99, !noalias !102
  %indvars.iv.next = add nuw nsw i64 %indvars.iv, 4
  %21 = icmp samesign ult i64 %indvars.iv, 28
  br i1 %21, label %11, label %22, !llvm.loop !93

22:                                               ; preds = %11
  %23 = getelementptr inbounds nuw i16, ptr %.018.i, i64 %8
  %24 = getelementptr inbounds nuw i16, ptr %.017.i, i64 %9
  %25 = add nsw i32 %.019.i, -1
  %.not.i = icmp eq i32 %25, 0
  br i1 %.not.i, label %avg_c.exit, label %10, !llvm.loop !94

avg_c.exit:                                       ; preds = %22
  ret void
}